target datalayout = "e-m:e-p270:32:32-p271:32:32-p272:64:64-i64:64-i128:128-f80:128-n8:16:32:64-S128"
target triple = "x86_64-unknown-linux-gnu"

%class.btGImpactCollisionAlgorithm = type { %class.btActivatingCollisionAlgorithm, ptr, ptr, ptr, ptr, i32, i32, i32, i32 }
%class.btActivatingCollisionAlgorithm = type { %class.btCollisionAlgorithm }
%class.btCollisionAlgorithm = type { ptr, ptr }
%class.btVector3 = type { [4 x float] }
%class.btCollisionShape = type { ptr, i32, ptr, i32, i32 }
%class.btTriangleShapeEx = type { %class.btTriangleShape }
%class.btTriangleShape = type { %class.btPolyhedralConvexShape, [3 x %class.btVector3] }
%class.btPolyhedralConvexShape = type { %class.btConvexInternalShape, ptr }
%class.btConvexInternalShape = type { %class.btConvexShape, %class.btVector3, %class.btVector3, float, float }
%class.btConvexShape = type { %class.btCollisionShape }

; Function Attrs: mustprogress nounwind uwtable
define linkonce_odr dso_local void @_ZN9btVector3C2Ev(ptr noundef nonnull align 4 dereferenceable(16) %this) unnamed_addr #1 comdat align 2 {
entry:
  %this.addr = alloca ptr, align 8
  store ptr %this, ptr %this.addr, align 8
  ret void
}

; Function Attrs: mustprogress nounwind uwtable
define linkonce_odr dso_local void @_ZN15btTriangleShapeD2Ev(ptr noundef nonnull align 8 dereferenceable(128) %this) unnamed_addr #1 comdat align 2 {
entry:
  %this.addr = alloca ptr, align 8
  store ptr %this, ptr %this.addr, align 8
  %this1 = load ptr, ptr %this.addr, align 8
  call void @_ZN23btPolyhedralConvexShapeD2Ev(ptr noundef nonnull align 8 dereferenceable(80) %this1) #9
  ret void
}

; Function Attrs: mustprogress uwtable
define linkonce_odr dso_local void @_ZN15btTriangleShapeC2ERK9btVector3S2_S2_(ptr noundef nonnull align 8 dereferenceable(128) %this, ptr noundef nonnull align 4 dereferenceable(16) %p0, ptr noundef nonnull align 4 dereferenceable(16) %p1, ptr noundef nonnull align 4 dereferenceable(16) %p2) unnamed_addr #2 comdat align 2 personality ptr @__gxx_personality_v0 {
entry:
  %this.addr = alloca ptr, align 8
  %p0.addr = alloca ptr, align 8
  %p1.addr = alloca ptr, align 8
  %p2.addr = alloca ptr, align 8
  %exn.slot = alloca ptr, align 8
  %ehselector.slot = alloca i32, align 4
  store ptr %this, ptr %this.addr, align 8
  store ptr %p0, ptr %p0.addr, align 8
  store ptr %p1, ptr %p1.addr, align 8
  store ptr %p2, ptr %p2.addr, align 8
  %this1 = load ptr, ptr %this.addr, align 8
  call void @_ZN23btPolyhedralConvexShapeC2Ev(ptr noundef nonnull align 8 dereferenceable(80) %this1)
  store ptr getelementptr inbounds ({ [35 x ptr] }, ptr @_ZTV15btTriangleShape, i32 0, i32 0, i32 2), ptr %this1, align 8
  %m_vertices1 = getelementptr inbounds %class.btTriangleShape, ptr %this1, i32 0, i32 1
  %array.begin = getelementptr inbounds [3 x %class.btVector3], ptr %m_vertices1, i32 0, i32 0
  %arrayctor.end = getelementptr inbounds %class.btVector3, ptr %array.begin, i64 3
  br label %arrayctor.loop

arrayctor.loop:                                   ; preds = %invoke.cont, %entry
  %arrayctor.cur = phi ptr [ %array.begin, %entry ], [ %arrayctor.next, %invoke.cont ]
  invoke void @_ZN9btVector3C2Ev(ptr noundef nonnull align 4 dereferenceable(16) %arrayctor.cur)
          to label %invoke.cont unwind label %lpad

invoke.cont:                                      ; preds = %arrayctor.loop
  %arrayctor.next = getelementptr inbounds %class.btVector3, ptr %arrayctor.cur, i64 1
  %arrayctor.done = icmp eq ptr %arrayctor.next, %arrayctor.end
  br i1 %arrayctor.done, label %arrayctor.cont, label %arrayctor.loop

arrayctor.cont:                                   ; preds = %invoke.cont
  %m_shapeType = getelementptr inbounds %class.btCollisionShape, ptr %this1, i32 0, i32 1
  store i32 1, ptr %m_shapeType, align 8
  %0 = load ptr, ptr %p0.addr, align 8
  %m_vertices12 = getelementptr inbounds %class.btTriangleShape, ptr %this1, i32 0, i32 1
  %arrayidx = getelementptr inbounds [3 x %class.btVector3], ptr %m_vertices12, i64 0, i64 0
  call void @llvm.memcpy.p0.p0.i64(ptr align 8 %arrayidx, ptr align 4 %0, i64 16, i1 false)
  %1 = load ptr, ptr %p1.addr, align 8
  %m_vertices13 = getelementptr inbounds %class.btTriangleShape, ptr %this1, i32 0, i32 1
  %arrayidx4 = getelementptr inbounds [3 x %class.btVector3], ptr %m_vertices13, i64 0, i64 1
  call void @llvm.memcpy.p0.p0.i64(ptr align 8 %arrayidx4, ptr align 4 %1, i64 16, i1 false)
  %2 = load ptr, ptr %p2.addr, align 8
  %m_vertices15 = getelementptr inbounds %class.btTriangleShape, ptr %this1, i32 0, i32 1
  %arrayidx6 = getelementptr inbounds [3 x %class.btVector3], ptr %m_vertices15, i64 0, i64 2
  call void @llvm.memcpy.p0.p0.i64(ptr align 8 %arrayidx6, ptr align 4 %2, i64 16, i1 false)
  ret void

lpad:                                             ; preds = %arrayctor.loop
  %3 = landingpad { ptr, i32 }
          cleanup
  %4 = extractvalue { ptr, i32 } %3, 0
  store ptr %4, ptr %exn.slot, align 8
  %5 = extractvalue { ptr, i32 } %3, 1
  store i32 %5, ptr %ehselector.slot, align 4
  call void @_ZN23btPolyhedralConvexShapeD2Ev(ptr noundef nonnull align 8 dereferenceable(80) %this1) #9
  br label %eh.resume

eh.resume:                                        ; preds = %lpad
  %exn = load ptr, ptr %exn.slot, align 8
  %sel = load i32, ptr %ehselector.slot, align 4
  %lpad.val = insertvalue { ptr, i32 } poison, ptr %exn, 0
  %lpad.val7 = insertvalue { ptr, i32 } %lpad.val, i32 %sel, 1
  resume { ptr, i32 } %lpad.val7
}

; Function Attrs: mustprogress nounwind uwtable
define linkonce_odr dso_local void @_ZN9btVector3C2ERKfS1_S1_(ptr noundef nonnull align 4 dereferenceable(16) %this, ptr noundef nonnull align 4 dereferenceable(4) %_x, ptr noundef nonnull align 4 dereferenceable(4) %_y, ptr noundef nonnull align 4 dereferenceable(4) %_z) unnamed_addr #1 comdat align 2 {
entry:
  %this.addr = alloca ptr, align 8
  %_x.addr = alloca ptr, align 8
  %_y.addr = alloca ptr, align 8
  %_z.addr = alloca ptr, align 8
  store ptr %this, ptr %this.addr, align 8
  store ptr %_x, ptr %_x.addr, align 8
  store ptr %_y, ptr %_y.addr, align 8
  store ptr %_z, ptr %_z.addr, align 8
  %this1 = load ptr, ptr %this.addr, align 8
  %0 = load ptr, ptr %_x.addr, align 8
  %1 = load float, ptr %0, align 4
  %m_floats = getelementptr inbounds %class.btVector3, ptr %this1, i32 0, i32 0
  %arrayidx = getelementptr inbounds [4 x float], ptr %m_floats, i64 0, i64 0
  store float %1, ptr %arrayidx, align 4
  %2 = load ptr, ptr %_y.addr, align 8
  %3 = load float, ptr %2, align 4
  %m_floats2 = getelementptr inbounds %class.btVector3, ptr %this1, i32 0, i32 0
  %arrayidx3 = getelementptr inbounds [4 x float], ptr %m_floats2, i64 0, i64 1
  store float %3, ptr %arrayidx3, align 4
  %4 = load ptr, ptr %_z.addr, align 8
  %5 = load float, ptr %4, align 4
  %m_floats4 = getelementptr inbounds %class.btVector3, ptr %this1, i32 0, i32 0
  %arrayidx5 = getelementptr inbounds [4 x float], ptr %m_floats4, i64 0, i64 2
  store float %5, ptr %arrayidx5, align 4
  %m_floats6 = getelementptr inbounds %class.btVector3, ptr %this1, i32 0, i32 0
  %arrayidx7 = getelementptr inbounds [4 x float], ptr %m_floats6, i64 0, i64 3
  store float 0.000000e+00, ptr %arrayidx7, align 4
  ret void
}

; Function Attrs: mustprogress nounwind uwtable
define linkonce_odr dso_local void @_ZN17btTriangleShapeExD2Ev(ptr noundef nonnull align 8 dereferenceable(128) %this) unnamed_addr #1 comdat align 2 {
entry:
  %this.addr = alloca ptr, align 8
  store ptr %this, ptr %this.addr, align 8
  %this1 = load ptr, ptr %this.addr, align 8
  call void @_ZN15btTriangleShapeD2Ev(ptr noundef nonnull align 8 dereferenceable(128) %this1) #9
  ret void
}

; Function Attrs: mustprogress uwtable
define linkonce_odr dso_local void @_ZN17btTriangleShapeExC2Ev(ptr noundef nonnull align 8 dereferenceable(128) %this) unnamed_addr #2 comdat align 2 {
entry:
  %this.addr = alloca ptr, align 8
  %ref.tmp = alloca %class.btVector3, align 4
  %ref.tmp2 = alloca float, align 4
  %ref.tmp3 = alloca float, align 4
  %ref.tmp4 = alloca float, align 4
  %ref.tmp5 = alloca %class.btVector3, align 4
  %ref.tmp6 = alloca float, align 4
  %ref.tmp7 = alloca float, align 4
  %ref.tmp8 = alloca float, align 4
  %ref.tmp9 = alloca %class.btVector3, align 4
  %ref.tmp10 = alloca float, align 4
  %ref.tmp11 = alloca float, align 4
  %ref.tmp12 = alloca float, align 4
  store ptr %this, ptr %this.addr, align 8
  %this1 = load ptr, ptr %this.addr, align 8
  store float 0.000000e+00, ptr %ref.tmp2, align 4
  store float 0.000000e+00, ptr %ref.tmp3, align 4
  store float 0.000000e+00, ptr %ref.tmp4, align 4
  call void @_ZN9btVector3C2ERKfS1_S1_(ptr noundef nonnull align 4 dereferenceable(16) %ref.tmp, ptr noundef nonnull align 4 dereferenceable(4) %ref.tmp2, ptr noundef nonnull align 4 dereferenceable(4) %ref.tmp3, ptr noundef nonnull align 4 dereferenceable(4) %ref.tmp4)
  store float 0.000000e+00, ptr %ref.tmp6, align 4
  store float 0.000000e+00, ptr %ref.tmp7, align 4
  store float 0.000000e+00, ptr %ref.tmp8, align 4
  call void @_ZN9btVector3C2ERKfS1_S1_(ptr noundef nonnull align 4 dereferenceable(16) %ref.tmp5, ptr noundef nonnull align 4 dereferenceable(4) %ref.tmp6, ptr noundef nonnull align 4 dereferenceable(4) %ref.tmp7, ptr noundef nonnull align 4 dereferenceable(4) %ref.tmp8)
  store float 0.000000e+00, ptr %ref.tmp10, align 4
  store float 0.000000e+00, ptr %ref.tmp11, align 4
  store float 0.000000e+00, ptr %ref.tmp12, align 4
  call void @_ZN9btVector3C2ERKfS1_S1_(ptr noundef nonnull align 4 dereferenceable(16) %ref.tmp9, ptr noundef nonnull align 4 dereferenceable(4) %ref.tmp10, ptr noundef nonnull align 4 dereferenceable(4) %ref.tmp11, ptr noundef nonnull align 4 dereferenceable(4) %ref.tmp12)
  call void @_ZN15btTriangleShapeC2ERK9btVector3S2_S2_(ptr noundef nonnull align 8 dereferenceable(128) %this1, ptr noundef nonnull align 4 dereferenceable(16) %ref.tmp, ptr noundef nonnull align 4 dereferenceable(16) %ref.tmp5, ptr noundef nonnull align 4 dereferenceable(16) %ref.tmp9)
  store ptr getelementptr inbounds ({ [35 x ptr] }, ptr @_ZTV17btTriangleShapeEx, i32 0, i32 0, i32 2), ptr %this1, align 8
  ret void
}

; Function Attrs: mustprogress uwtable
define dso_local void @_ZN27btGImpactCollisionAlgorithm21collide_gjk_trianglesEPK24btCollisionObjectWrapperS2_PK22btGImpactMeshShapePartS5_PKii(ptr noundef nonnull align 8 dereferenceable(64) %this, ptr noundef %body0Wrap, ptr noundef %body1Wrap, ptr noundef %shape0, ptr noundef %shape1, ptr noundef %pairs, i32 noundef %pair_count) #2 align 2 personality ptr @__gxx_personality_v0 {
entry:
  %this.addr = alloca ptr, align 8
  %body0Wrap.addr = alloca ptr, align 8
  %body1Wrap.addr = alloca ptr, align 8
  %shape0.addr = alloca ptr, align 8
  %shape1.addr = alloca ptr, align 8
  %pairs.addr = alloca ptr, align 8
  %pair_count.addr = alloca i32, align 4
  %tri0 = alloca %class.btTriangleShapeEx, align 8
  %tri1 = alloca %class.btTriangleShapeEx, align 8
  %exn.slot = alloca ptr, align 8
  %ehselector.slot = alloca i32, align 4
  %pair_pointer = alloca ptr, align 8
  store ptr %this, ptr %this.addr, align 8
  store ptr %body0Wrap, ptr %body0Wrap.addr, align 8
  store ptr %body1Wrap, ptr %body1Wrap.addr, align 8
  store ptr %shape0, ptr %shape0.addr, align 8
  store ptr %shape1, ptr %shape1.addr, align 8
  store ptr %pairs, ptr %pairs.addr, align 8
  store i32 %pair_count, ptr %pair_count.addr, align 4
  %this1 = load ptr, ptr %this.addr, align 8
  call void @_ZN17btTriangleShapeExC2Ev(ptr noundef nonnull align 8 dereferenceable(128) %tri0)
  invoke void @_ZN17btTriangleShapeExC2Ev(ptr noundef nonnull align 8 dereferenceable(128) %tri1)
          to label %invoke.cont unwind label %lpad

invoke.cont:                                      ; preds = %entry
  %0 = load ptr, ptr %shape0.addr, align 8
  %vtable = load ptr, ptr %0, align 8
  %vfn = getelementptr inbounds ptr, ptr %vtable, i64 28
  %1 = load ptr, ptr %vfn, align 8
  invoke void %1(ptr noundef nonnull align 8 dereferenceable(280) %0)
          to label %invoke.cont3 unwind label %lpad2

invoke.cont3:                                     ; preds = %invoke.cont
  %2 = load ptr, ptr %shape1.addr, align 8
  %vtable4 = load ptr, ptr %2, align 8
  %vfn5 = getelementptr inbounds ptr, ptr %vtable4, i64 28
  %3 = load ptr, ptr %vfn5, align 8
  invoke void %3(ptr noundef nonnull align 8 dereferenceable(280) %2)
          to label %invoke.cont6 unwind label %lpad2

invoke.cont6:                                     ; preds = %invoke.cont3
  %4 = load ptr, ptr %pairs.addr, align 8
  store ptr %4, ptr %pair_pointer, align 8
  br label %while.cond

while.cond:                                       ; preds = %if.end, %invoke.cont6
  %5 = load i32, ptr %pair_count.addr, align 4
  %dec = add nsw i32 %5, -1
  store i32 %dec, ptr %pair_count.addr, align 4
  %tobool = icmp ne i32 %5, 0
  br i1 %tobool, label %while.body, label %while.end

while.body:                                       ; preds = %while.cond
  %6 = load ptr, ptr %pair_pointer, align 8
  %7 = load i32, ptr %6, align 4
  %m_triface0 = getelementptr inbounds %class.btGImpactCollisionAlgorithm, ptr %this1, i32 0, i32 5
  store i32 %7, ptr %m_triface0, align 8
  %8 = load ptr, ptr %pair_pointer, align 8
  %add.ptr = getelementptr inbounds i32, ptr %8, i64 1
  %9 = load i32, ptr %add.ptr, align 4
  %m_triface1 = getelementptr inbounds %class.btGImpactCollisionAlgorithm, ptr %this1, i32 0, i32 7
  store i32 %9, ptr %m_triface1, align 8
  %10 = load ptr, ptr %pair_pointer, align 8
  %add.ptr7 = getelementptr inbounds i32, ptr %10, i64 2
  store ptr %add.ptr7, ptr %pair_pointer, align 8
  %11 = load ptr, ptr %shape0.addr, align 8
  %m_triface08 = getelementptr inbounds %class.btGImpactCollisionAlgorithm, ptr %this1, i32 0, i32 5
  %12 = load i32, ptr %m_triface08, align 8
  %vtable9 = load ptr, ptr %11, align 8
  %vfn10 = getelementptr inbounds ptr, ptr %vtable9, i64 26
  %13 = load ptr, ptr %vfn10, align 8
  invoke void %13(ptr noundef nonnull align 8 dereferenceable(280) %11, i32 noundef %12, ptr noundef nonnull align 8 dereferenceable(128) %tri0)
          to label %invoke.cont11 unwind label %lpad2

invoke.cont11:                                    ; preds = %while.body
  %14 = load ptr, ptr %shape1.addr, align 8
  %m_triface112 = getelementptr inbounds %class.btGImpactCollisionAlgorithm, ptr %this1, i32 0, i32 7
  %15 = load i32, ptr %m_triface112, align 8
  %vtable13 = load ptr, ptr %14, align 8
  %vfn14 = getelementptr inbounds ptr, ptr %vtable13, i64 26
  %16 = load ptr, ptr %vfn14, align 8
  invoke void %16(ptr noundef nonnull align 8 dereferenceable(280) %14, i32 noundef %15, ptr noundef nonnull align 8 dereferenceable(128) %tri1)
          to label %invoke.cont15 unwind label %lpad2

invoke.cont15:                                    ; preds = %invoke.cont11
  %call = invoke noundef zeroext i1 @_ZN17btTriangleShapeEx25overlap_test_conservativeERKS_(ptr noundef nonnull align 8 dereferenceable(128) %tri0, ptr noundef nonnull align 8 dereferenceable(128) %tri1)
          to label %invoke.cont16 unwind label %lpad2

invoke.cont16:                                    ; preds = %invoke.cont15
  br i1 %call, label %if.then, label %if.end

if.then:                                          ; preds = %invoke.cont16
  %17 = load ptr, ptr %body0Wrap.addr, align 8
  %18 = load ptr, ptr %body1Wrap.addr, align 8
  invoke void @_ZN27btGImpactCollisionAlgorithm26convex_vs_convex_collisionEPK24btCollisionObjectWrapperS2_PK16btCollisionShapeS5_(ptr noundef nonnull align 8 dereferenceable(64) %this1, ptr noundef %17, ptr noundef %18, ptr noundef %tri0, ptr noundef %tri1)
          to label %invoke.cont17 unwind label %lpad2

invoke.cont17:                                    ; preds = %if.then
  br label %if.end

lpad:                                             ; preds = %entry
  %19 = landingpad { ptr, i32 }
          cleanup
  %20 = extractvalue { ptr, i32 } %19, 0
  store ptr %20, ptr %exn.slot, align 8
  %21 = extractvalue { ptr, i32 } %19, 1
  store i32 %21, ptr %ehselector.slot, align 4
  br label %ehcleanup

lpad2:                                            ; preds = %invoke.cont20, %while.end, %if.then, %invoke.cont15, %invoke.cont11, %while.body, %invoke.cont3, %invoke.cont
  %22 = landingpad { ptr, i32 }
          cleanup
  %23 = extractvalue { ptr, i32 } %22, 0
  store ptr %23, ptr %exn.slot, align 8
  %24 = extractvalue { ptr, i32 } %22, 1
  store i32 %24, ptr %ehselector.slot, align 4
  call void @_ZN17btTriangleShapeExD2Ev(ptr noundef nonnull align 8 dereferenceable(128) %tri1) #9
  br label %ehcleanup

if.end:                                           ; preds = %invoke.cont17, %invoke.cont16
  br label %while.cond, !llvm.loop !9

while.end:                                        ; preds = %while.cond
  %25 = load ptr, ptr %shape0.addr, align 8
  %vtable18 = load ptr, ptr %25, align 8
  %vfn19 = getelementptr inbounds ptr, ptr %vtable18, i64 29
  %26 = load ptr, ptr %vfn19, align 8
  invoke void %26(ptr noundef nonnull align 8 dereferenceable(280) %25)
          to label %invoke.cont20 unwind label %lpad2

invoke.cont20:                                    ; preds = %while.end
  %27 = load ptr, ptr %shape1.addr, align 8
  %vtable21 = load ptr, ptr %27, align 8
  %vfn22 = getelementptr inbounds ptr, ptr %vtable21, i64 29
  %28 = load ptr, ptr %vfn22, align 8
  invoke void %28(ptr noundef nonnull align 8 dereferenceable(280) %27)
          to label %invoke.cont23 unwind label %lpad2

invoke.cont23:                                    ; preds = %invoke.cont20
  call void @_ZN17btTriangleShapeExD2Ev(ptr noundef nonnull align 8 dereferenceable(128) %tri1) #9
  call void @_ZN17btTriangleShapeExD2Ev(ptr noundef nonnull align 8 dereferenceable(128) %tri0) #9
  ret void

ehcleanup:                                        ; preds = %lpad2, %lpad
  call void @_ZN17btTriangleShapeExD2Ev(ptr noundef nonnull align 8 dereferenceable(128) %tri0) #9
  br label %eh.resume

eh.resume:                                        ; preds = %ehcleanup
  %exn = load ptr, ptr %exn.slot, align 8
  %sel = load i32, ptr %ehselector.slot, align 4
  %lpad.val = insertvalue { ptr, i32 } poison, ptr %exn, 0
  %lpad.val24 = insertvalue { ptr, i32 } %lpad.val, i32 %sel, 1
  resume { ptr, i32 } %lpad.val24
}