; Function Attrs: mustprogress uwtable
define dso_local void @_ZN27btGImpactCollisionAlgorithm21collide_gjk_trianglesEPK24btCollisionObjectWrapperS2_PK22btGImpactMeshShapePartS5_PKii(ptr nocapture noundef nonnull align 8 dereferenceable(64) %this, ptr noundef %body0Wrap, ptr noundef %body1Wrap, ptr noundef %shape0, ptr noundef %shape1, ptr nocapture noundef readonly %pairs, i32 noundef %pair_count) local_unnamed_addr #0 align 2 personality ptr @__gxx_personality_v0 {
entry:
  %tri0 = alloca %class.btTriangleShapeEx, align 8
  %tri1 = alloca %class.btTriangleShapeEx, align 8
  call void @_ZN23btPolyhedralConvexShapeC2Ev(ptr noundef nonnull align 8 dereferenceable(80) %tri0)
  %m_vertices1.ptr.i.i = getelementptr inbounds i8, ptr %tri0, i64 80
  %m_shapeType.i.i = getelementptr inbounds i8, ptr %tri0, i64 8
  store i32 1, ptr %m_shapeType.i.i, align 8
  call void @llvm.memset.p0.i64(ptr noundef nonnull align 8 dereferenceable(48) %m_vertices1.ptr.i.i, i8 0, i64 48, i1 false)
  store ptr getelementptr inbounds ({ [35 x ptr] }, ptr @_ZTV17btTriangleShapeEx, i64 0, i32 0, i64 2), ptr %tri0, align 8
  invoke void @_ZN23btPolyhedralConvexShapeC2Ev(ptr noundef nonnull align 8 dereferenceable(80) %tri1)
          to label %invoke.cont unwind label %lpad

invoke.cont:                                      ; preds = %entry
  %m_vertices1.ptr.i.i8 = getelementptr inbounds i8, ptr %tri1, i64 80
  %m_shapeType.i.i9 = getelementptr inbounds i8, ptr %tri1, i64 8
  store i32 1, ptr %m_shapeType.i.i9, align 8
  call void @llvm.memset.p0.i64(ptr noundef nonnull align 8 dereferenceable(48) %m_vertices1.ptr.i.i8, i8 0, i64 48, i1 false)
  store ptr getelementptr inbounds ({ [35 x ptr] }, ptr @_ZTV17btTriangleShapeEx, i64 0, i32 0, i64 2), ptr %tri1, align 8
  %vtable = load ptr, ptr %shape0, align 8
  %vfn = getelementptr inbounds i8, ptr %vtable, i64 224
  %0 = load ptr, ptr %vfn, align 8
  invoke void %0(ptr noundef nonnull align 8 dereferenceable(280) %shape0)
          to label %invoke.cont3 unwind label %lpad2.loopexit.split-lp

invoke.cont3:                                     ; preds = %invoke.cont
  %vtable4 = load ptr, ptr %shape1, align 8
  %vfn5 = getelementptr inbounds i8, ptr %vtable4, i64 224
  %1 = load ptr, ptr %vfn5, align 8
  invoke void %1(ptr noundef nonnull align 8 dereferenceable(280) %shape1)
          to label %while.cond.preheader unwind label %lpad2.loopexit.split-lp

while.cond.preheader:                             ; preds = %invoke.cont3
  %tobool.not11 = icmp eq i32 %pair_count, 0
  br i1 %tobool.not11, label %while.end, label %while.body.lr.ph

while.body.lr.ph:                                 ; preds = %while.cond.preheader
  %m_triface0 = getelementptr inbounds i8, ptr %this, i64 48
  %m_triface1 = getelementptr inbounds i8, ptr %this, i64 56
  br label %while.body

while.body:                                       ; preds = %while.body.lr.ph, %if.end
  %dec13.in = phi i32 [ %pair_count, %while.body.lr.ph ], [ %dec13, %if.end ]
  %pair_pointer.012 = phi ptr [ %pairs, %while.body.lr.ph ], [ %add.ptr7, %if.end ]
  %dec13 = add nsw i32 %dec13.in, -1
  %2 = load i32, ptr %pair_pointer.012, align 4
  store i32 %2, ptr %m_triface0, align 8
  %add.ptr = getelementptr inbounds i8, ptr %pair_pointer.012, i64 4
  %3 = load i32, ptr %add.ptr, align 4
  store i32 %3, ptr %m_triface1, align 8
  %add.ptr7 = getelementptr inbounds i8, ptr %pair_pointer.012, i64 8
  %vtable9 = load ptr, ptr %shape0, align 8
  %vfn10 = getelementptr inbounds i8, ptr %vtable9, i64 208
  %4 = load ptr, ptr %vfn10, align 8
  invoke void %4(ptr noundef nonnull align 8 dereferenceable(280) %shape0, i32 noundef %2, ptr noundef nonnull align 8 dereferenceable(128) %tri0)
          to label %invoke.cont11 unwind label %lpad2.loopexit

invoke.cont11:                                    ; preds = %while.body
  %5 = load i32, ptr %m_triface1, align 8
  %vtable13 = load ptr, ptr %shape1, align 8
  %vfn14 = getelementptr inbounds i8, ptr %vtable13, i64 208
  %6 = load ptr, ptr %vfn14, align 8
  invoke void %6(ptr noundef nonnull align 8 dereferenceable(280) %shape1, i32 noundef %5, ptr noundef nonnull align 8 dereferenceable(128) %tri1)
          to label %invoke.cont15 unwind label %lpad2.loopexit

invoke.cont15:                                    ; preds = %invoke.cont11
  %call = invoke noundef zeroext i1 @_ZN17btTriangleShapeEx25overlap_test_conservativeERKS_(ptr noundef nonnull align 8 dereferenceable(128) %tri0, ptr noundef nonnull align 8 dereferenceable(128) %tri1)
          to label %invoke.cont16 unwind label %lpad2.loopexit

invoke.cont16:                                    ; preds = %invoke.cont15
  br i1 %call, label %if.then, label %if.end

if.then:                                          ; preds = %invoke.cont16
  invoke void @_ZN27btGImpactCollisionAlgorithm26convex_vs_convex_collisionEPK24btCollisionObjectWrapperS2_PK16btCollisionShapeS5_(ptr noundef nonnull align 8 dereferenceable(64) %this, ptr noundef %body0Wrap, ptr noundef %body1Wrap, ptr noundef nonnull %tri0, ptr noundef nonnull %tri1)
          to label %if.end unwind label %lpad2.loopexit

lpad:                                             ; preds = %entry
  %7 = landingpad { ptr, i32 }
          cleanup
  br label %ehcleanup

lpad2.loopexit:                                   ; preds = %while.body, %invoke.cont11, %invoke.cont15, %if.then
  %lpad.loopexit = landingpad { ptr, i32 }
          cleanup
  br label %lpad2

lpad2.loopexit.split-lp:                          ; preds = %invoke.cont, %invoke.cont3, %while.end, %invoke.cont20
  %lpad.loopexit.split-lp = landingpad { ptr, i32 }
          cleanup
  br label %lpad2

lpad2:                                            ; preds = %lpad2.loopexit.split-lp, %lpad2.loopexit
  %lpad.phi = phi { ptr, i32 } [ %lpad.loopexit, %lpad2.loopexit ], [ %lpad.loopexit.split-lp, %lpad2.loopexit.split-lp ]
  call void @_ZN23btPolyhedralConvexShapeD2Ev(ptr noundef nonnull align 8 dereferenceable(80) %tri1) #14
  br label %ehcleanup

if.end:                                           ; preds = %if.then, %invoke.cont16
  %tobool.not = icmp eq i32 %dec13, 0
  br i1 %tobool.not, label %while.end, label %while.body, !llvm.loop !17

while.end:                                        ; preds = %if.end, %while.cond.preheader
  %vtable18 = load ptr, ptr %shape0, align 8
  %vfn19 = getelementptr inbounds i8, ptr %vtable18, i64 232
  %8 = load ptr, ptr %vfn19, align 8
  invoke void %8(ptr noundef nonnull align 8 dereferenceable(280) %shape0)
          to label %invoke.cont20 unwind label %lpad2.loopexit.split-lp

invoke.cont20:                                    ; preds = %while.end
  %vtable21 = load ptr, ptr %shape1, align 8
  %vfn22 = getelementptr inbounds i8, ptr %vtable21, i64 232
  %9 = load ptr, ptr %vfn22, align 8
  invoke void %9(ptr noundef nonnull align 8 dereferenceable(280) %shape1)
          to label %invoke.cont23 unwind label %lpad2.loopexit.split-lp

invoke.cont23:                                    ; preds = %invoke.cont20
  call void @_ZN23btPolyhedralConvexShapeD2Ev(ptr noundef nonnull align 8 dereferenceable(80) %tri1) #14
  call void @_ZN23btPolyhedralConvexShapeD2Ev(ptr noundef nonnull align 8 dereferenceable(80) %tri0) #14
  ret void

ehcleanup:                                        ; preds = %lpad2, %lpad
  %.pn = phi { ptr, i32 } [ %lpad.phi, %lpad2 ], [ %7, %lpad ]
  call void @_ZN23btPolyhedralConvexShapeD2Ev(ptr noundef nonnull align 8 dereferenceable(80) %tri0) #14
  resume { ptr, i32 } %.pn
}